target datalayout = "e-m:e-p270:32:32-p271:32:32-p272:64:64-i64:64-i128:128-f80:128-n8:16:32:64-S128"
target triple = "x86_64-pc-linux-gnu"

%struct._variable = type { ptr, ptr, ptr, ptr, ptr }

; Function Attrs: nounwind uwtable
define dso_local ptr @GetVariable(ptr noundef %0, ptr noundef %1) #0 {
  %3 = alloca ptr, align 8
  %4 = alloca ptr, align 8
  %5 = alloca ptr, align 8
  %6 = alloca ptr, align 8
  %7 = alloca i32, align 4
  %8 = alloca i32, align 4
  store ptr %0, ptr %4, align 8
  store ptr %1, ptr %5, align 8
  call void @llvm.lifetime.start.p0(i64 8, ptr %6) #6
  %9 = load ptr, ptr %4, align 8
  %10 = icmp ne ptr %9, null
  br i1 %10, label %12, label %11

11:                                               ; preds = %2
  store ptr null, ptr %3, align 8
  store i32 1, ptr %7, align 4
  br label %44

12:                                               ; preds = %2
  %13 = load ptr, ptr %4, align 8
  %14 = getelementptr inbounds nuw %struct._variable, ptr %13, i32 0, i32 4
  %15 = load ptr, ptr %14, align 8
  store ptr %15, ptr %6, align 8
  br label %16

16:                                               ; preds = %39, %12
  %17 = load ptr, ptr %6, align 8
  %18 = icmp ne ptr %17, null
  br i1 %18, label %19, label %43

19:                                               ; preds = %16
  call void @llvm.lifetime.start.p0(i64 4, ptr %8) #6
  %20 = load ptr, ptr %6, align 8
  %21 = getelementptr inbounds nuw %struct._variable, ptr %20, i32 0, i32 0
  %22 = load ptr, ptr %21, align 8
  %23 = load ptr, ptr %5, align 8
  %24 = call i32 @strcmp(ptr noundef %22, ptr noundef %23) #7
  store i32 %24, ptr %8, align 4
  %25 = load i32, ptr %8, align 4
  %26 = icmp eq i32 %25, 0
  br i1 %26, label %27, label %31

27:                                               ; preds = %19
  %28 = load ptr, ptr %6, align 8
  %29 = getelementptr inbounds nuw %struct._variable, ptr %28, i32 0, i32 1
  %30 = load ptr, ptr %29, align 8
  store ptr %30, ptr %3, align 8
  store i32 1, ptr %7, align 4
  br label %36

31:                                               ; preds = %19
  %32 = load i32, ptr %8, align 4
  %33 = icmp sgt i32 %32, 0
  br i1 %33, label %34, label %35

34:                                               ; preds = %31
  store i32 2, ptr %7, align 4
  br label %36

35:                                               ; preds = %31
  store i32 0, ptr %7, align 4
  br label %36

36:                                               ; preds = %35, %34, %27
  call void @llvm.lifetime.end.p0(i64 4, ptr %8) #6
  %37 = load i32, ptr %7, align 4
  switch i32 %37, label %44 [
    i32 0, label %38
    i32 2, label %43
  ]

38:                                               ; preds = %36
  br label %39

39:                                               ; preds = %38
  %40 = load ptr, ptr %6, align 8
  %41 = getelementptr inbounds nuw %struct._variable, ptr %40, i32 0, i32 4
  %42 = load ptr, ptr %41, align 8
  store ptr %42, ptr %6, align 8
  br label %16, !llvm.loop !4

43:                                               ; preds = %36, %16
  store ptr null, ptr %3, align 8
  store i32 1, ptr %7, align 4
  br label %44

44:                                               ; preds = %43, %36, %11
  call void @llvm.lifetime.end.p0(i64 8, ptr %6) #6
  %45 = load ptr, ptr %3, align 8
  ret ptr %45
}