; Function Attrs: nofree nounwind memory(read, inaccessiblemem: none) uwtable
define dso_local ptr @GetVariable(ptr noundef readonly captures(address_is_null) %0, ptr noundef readonly captures(none) %1) local_unnamed_addr #3 {
  %.not = icmp eq ptr %0, null
  br i1 %.not, label %.thread17, label %.preheader

.preheader:                                       ; preds = %2, %9
  %.pn = phi ptr [ %.011, %9 ], [ %0, %2 ]
  %.011.in = getelementptr inbounds nuw i8, ptr %.pn, i64 32
  %.011 = load ptr, ptr %.011.in, align 8
  %.not14 = icmp eq ptr %.011, null
  br i1 %.not14, label %.thread17, label %3

3:                                                ; preds = %.preheader
  %4 = load ptr, ptr %.011, align 8
  %5 = tail call i32 @strcmp(ptr noundef nonnull dereferenceable(1) %4, ptr noundef nonnull dereferenceable(1) %1) #12
  %6 = icmp eq i32 %5, 0
  br i1 %6, label %.thread, label %9

.thread:                                          ; preds = %3
  %7 = getelementptr inbounds nuw i8, ptr %.011, i64 8
  %8 = load ptr, ptr %7, align 8
  br label %.thread17

9:                                                ; preds = %3
  %10 = icmp sgt i32 %5, 0
  br i1 %10, label %.thread17, label %.preheader

.thread17:                                        ; preds = %9, %.preheader, %.thread, %2
  %.0 = phi ptr [ null, %2 ], [ %8, %.thread ], [ null, %.preheader ], [ null, %9 ]
  ret ptr %.0
}